; ModuleID = '13/1609.c'
source_filename = "13/1609.c"
target datalayout = "e-m:e-p270:32:32-p271:32:32-p272:64:64-i64:64-f80:128-n8:16:32:64-S128"
target triple = "x86_64-pc-linux-gnu"

@.str = private unnamed_addr constant [3 x i8] c"%d\00", align 1
@.str.1 = private unnamed_addr constant [4 x i8] c" %d\00", align 1

; Function Attrs: noinline nounwind uwtable
define dso_local i32 @main() #0 {
  %1 = alloca i32, align 4
  %2 = alloca i32, align 4
  %3 = alloca [100 x i32], align 16
  %4 = alloca i32, align 4
  %5 = alloca i32, align 4
  store i32 0, i32* %1, align 4
  %6 = call i32 (i8*, ...) @__isoc99_scanf(i8* getelementptr inbounds ([3 x i8], [3 x i8]* @.str, i64 0, i64 0), i32* %2)
  store i32 0, i32* %4, align 4
  br label %7

7:                                                ; preds = %16, %0
  %8 = load i32, i32* %4, align 4
  %9 = load i32, i32* %2, align 4
  %10 = icmp slt i32 %8, %9
  br i1 %10, label %11, label %19

11:                                               ; preds = %7
  %12 = load i32, i32* %4, align 4
  %13 = sext i32 %12 to i64
  %14 = getelementptr inbounds [100 x i32], [100 x i32]* %3, i64 0, i64 %13
  %15 = call i32 (i8*, ...) @__isoc99_scanf(i8* getelementptr inbounds ([3 x i8], [3 x i8]* @.str, i64 0, i64 0), i32* %14)
  br label %16

16:                                               ; preds = %11
  %17 = load i32, i32* %4, align 4
  %18 = add nsw i32 %17, 1
  store i32 %18, i32* %4, align 4
  br label %7

19:                                               ; preds = %7
  store i32 0, i32* %4, align 4
  br label %20

20:                                               ; preds = %71, %19
  %21 = load i32, i32* %4, align 4
  %22 = load i32, i32* %2, align 4
  %23 = icmp slt i32 %21, %22
  br i1 %23, label %24, label %74

24:                                               ; preds = %20
  %25 = load i32, i32* %4, align 4
  %26 = icmp eq i32 %25, 0
  br i1 %26, label %27, label %33

27:                                               ; preds = %24
  %28 = load i32, i32* %4, align 4
  %29 = sext i32 %28 to i64
  %30 = getelementptr inbounds [100 x i32], [100 x i32]* %3, i64 0, i64 %29
  %31 = load i32, i32* %30, align 4
  %32 = call i32 (i8*, ...) @printf(i8* getelementptr inbounds ([3 x i8], [3 x i8]* @.str, i64 0, i64 0), i32 %31)
  br label %70

33:                                               ; preds = %24
  store i32 0, i32* %5, align 4
  br label %34

34:                                               ; preds = %50, %33
  %35 = load i32, i32* %5, align 4
  %36 = load i32, i32* %4, align 4
  %37 = icmp slt i32 %35, %36
  br i1 %37, label %38, label %53

38:                                               ; preds = %34
  %39 = load i32, i32* %5, align 4
  %40 = sext i32 %39 to i64
  %41 = getelementptr inbounds [100 x i32], [100 x i32]* %3, i64 0, i64 %40
  %42 = load i32, i32* %41, align 4
  %43 = load i32, i32* %4, align 4
  %44 = sext i32 %43 to i64
  %45 = getelementptr inbounds [100 x i32], [100 x i32]* %3, i64 0, i64 %44
  %46 = load i32, i32* %45, align 4
  %47 = icmp eq i32 %42, %46
  br i1 %47, label %48, label %49

48:                                               ; preds = %38
  br label %53

49:                                               ; preds = %38
  br label %50

50:                                               ; preds = %49
  %51 = load i32, i32* %5, align 4
  %52 = add nsw i32 %51, 1
  store i32 %52, i32* %5, align 4
  br label %34

53:                                               ; preds = %48, %34
  %54 = load i32, i32* %5, align 4
  %55 = load i32, i32* %4, align 4
  %56 = icmp eq i32 %54, %55
  br i1 %56, label %57, label %63

57:                                               ; preds = %53
  %58 = load i32, i32* %4, align 4
  %59 = sext i32 %58 to i64
  %60 = getelementptr inbounds [100 x i32], [100 x i32]* %3, i64 0, i64 %59
  %61 = load i32, i32* %60, align 4
  %62 = call i32 (i8*, ...) @printf(i8* getelementptr inbounds ([4 x i8], [4 x i8]* @.str.1, i64 0, i64 0), i32 %61)
  br label %69

63:                                               ; preds = %53
  %64 = load i32, i32* %5, align 4
  %65 = load i32, i32* %4, align 4
  %66 = icmp slt i32 %64, %65
  br i1 %66, label %67, label %68

67:                                               ; preds = %63
  br label %71

68:                                               ; preds = %63
  br label %69

69:                                               ; preds = %68, %57
  br label %70

70:                                               ; preds = %69, %27
  br label %71

71:                                               ; preds = %70, %67
  %72 = load i32, i32* %4, align 4
  %73 = add nsw i32 %72, 1
  store i32 %73, i32* %4, align 4
  br label %20

74:                                               ; preds = %20
  ret i32 0
}

declare dso_local i32 @__isoc99_scanf(i8*, ...) #1

declare dso_local i32 @printf(i8*, ...) #1


!llvm.module.flags = !{!0}
!llvm.ident = !{!1}

!0 = !{i32 1, !"wchar_size", i32 4}
!1 = !{!"clang version 10.0.0-4ubuntu1 "}
